; Function Attrs: nounwind uwtable
define internal void @decode_flush(ptr noundef readonly captures(none) %0) #1 {
  %2 = getelementptr inbounds nuw i8, ptr %0, i64 32
  %3 = load ptr, ptr %2, align 8, !tbaa !4
  %4 = getelementptr inbounds nuw i8, ptr %3, i64 8
  %5 = load ptr, ptr %4, align 8, !tbaa !33
  tail call void @av_frame_unref(ptr noundef %5) #8
  %6 = getelementptr inbounds nuw i8, ptr %0, i64 80
  %7 = load i32, ptr %6, align 8, !tbaa !55
  %spec.select = tail call i32 @llvm.umin.i32(i32 %7, i32 1024)
  %8 = getelementptr inbounds nuw i8, ptr %0, i64 72
  %9 = load ptr, ptr %8, align 8, !tbaa !56
  %10 = sext i32 %7 to i64
  %11 = getelementptr inbounds i8, ptr %9, i64 %10
  %12 = zext nneg i32 %spec.select to i64
  %13 = sub nsw i64 0, %12
  %14 = getelementptr inbounds i8, ptr %11, i64 %13
  %.not = icmp ult i32 %7, 4
  br i1 %.not, label %._crit_edge, label %.lr.ph

.lr.ph:                                           ; preds = %1
  %15 = lshr i32 %spec.select, 2
  %16 = getelementptr inbounds nuw i8, ptr %3, i64 16
  %wide.trip.count = zext nneg i32 %15 to i64
  br label %17

17:                                               ; preds = %.lr.ph, %17
  %indvars.iv = phi i64 [ 0, %.lr.ph ], [ %indvars.iv.next, %17 ]
  %18 = shl nuw nsw i64 %indvars.iv, 2
  %19 = getelementptr inbounds nuw i8, ptr %14, i64 %18
  %20 = load i32, ptr %19, align 1, !tbaa !41
  %21 = or i32 %20, -16777216
  %22 = getelementptr inbounds nuw [256 x i32], ptr %16, i64 0, i64 %indvars.iv
  store i32 %21, ptr %22, align 4, !tbaa !44
  %indvars.iv.next = add nuw nsw i64 %indvars.iv, 1
  %exitcond.not = icmp eq i64 %indvars.iv.next, %wide.trip.count
  br i1 %exitcond.not, label %._crit_edge, label %17, !llvm.loop !57

._crit_edge:                                      ; preds = %17, %1
  ret void
}